; Function Attrs: mustprogress nounwind uwtable
define dso_local noundef nonnull align 8 dereferenceable(48) ptr @_ZN4llvm7objcarclsERNS_11raw_ostreamENS0_8SequenceE(ptr noundef nonnull align 8 dereferenceable(48) %0, i32 noundef %1) local_unnamed_addr #0 {
  %3 = getelementptr inbounds nuw i8, ptr %0, i64 24
  %4 = load ptr, ptr %3, align 8
  %5 = getelementptr inbounds nuw i8, ptr %0, i64 32
  %6 = load ptr, ptr %5, align 8
  %7 = ptrtoint ptr %4 to i64
  %8 = ptrtoint ptr %6 to i64
  %9 = sub i64 %7, %8
  switch i32 %1, label %52 [
    i32 0, label %10
    i32 1, label %17
    i32 2, label %24
    i32 3, label %31
    i32 5, label %38
    i32 4, label %45
  ]

10:                                               ; preds = %2
  %11 = icmp ult i64 %9, 6
  br i1 %11, label %12, label %14

12:                                               ; preds = %10
  %13 = tail call noundef nonnull align 8 dereferenceable(48) ptr @_ZN4llvm11raw_ostream5writeEPKcm(ptr noundef nonnull align 8 dereferenceable(48) %0, ptr noundef nonnull @.str, i64 noundef 6) #7
  br label %_ZN4llvm11raw_ostreamlsEPKc.exit

14:                                               ; preds = %10
  tail call void @llvm.memcpy.p0.p0.i64(ptr noundef nonnull align 1 dereferenceable(6) %6, ptr noundef nonnull align 1 dereferenceable(6) @.str, i64 6, i1 false)
  %15 = load ptr, ptr %5, align 8
  %16 = getelementptr inbounds nuw i8, ptr %15, i64 6
  store ptr %16, ptr %5, align 8
  br label %_ZN4llvm11raw_ostreamlsEPKc.exit

17:                                               ; preds = %2
  %18 = icmp ult i64 %9, 8
  br i1 %18, label %19, label %21

19:                                               ; preds = %17
  %20 = tail call noundef nonnull align 8 dereferenceable(48) ptr @_ZN4llvm11raw_ostream5writeEPKcm(ptr noundef nonnull align 8 dereferenceable(48) %0, ptr noundef nonnull @.str.1, i64 noundef 8) #7
  br label %_ZN4llvm11raw_ostreamlsEPKc.exit

21:                                               ; preds = %17
  store i64 7955997369270689619, ptr %6, align 1
  %22 = load ptr, ptr %5, align 8
  %23 = getelementptr inbounds nuw i8, ptr %22, i64 8
  store ptr %23, ptr %5, align 8
  br label %_ZN4llvm11raw_ostreamlsEPKc.exit

24:                                               ; preds = %2
  %25 = icmp ult i64 %9, 12
  br i1 %25, label %26, label %28

26:                                               ; preds = %24
  %27 = tail call noundef nonnull align 8 dereferenceable(48) ptr @_ZN4llvm11raw_ostream5writeEPKcm(ptr noundef nonnull align 8 dereferenceable(48) %0, ptr noundef nonnull @.str.2, i64 noundef 12) #7
  br label %_ZN4llvm11raw_ostreamlsEPKc.exit

28:                                               ; preds = %24
  tail call void @llvm.memcpy.p0.p0.i64(ptr noundef nonnull align 1 dereferenceable(12) %6, ptr noundef nonnull align 1 dereferenceable(12) @.str.2, i64 12, i1 false)
  %29 = load ptr, ptr %5, align 8
  %30 = getelementptr inbounds nuw i8, ptr %29, i64 12
  store ptr %30, ptr %5, align 8
  br label %_ZN4llvm11raw_ostreamlsEPKc.exit

31:                                               ; preds = %2
  %32 = icmp ult i64 %9, 5
  br i1 %32, label %33, label %35

33:                                               ; preds = %31
  %34 = tail call noundef nonnull align 8 dereferenceable(48) ptr @_ZN4llvm11raw_ostream5writeEPKcm(ptr noundef nonnull align 8 dereferenceable(48) %0, ptr noundef nonnull @.str.3, i64 noundef 5) #7
  br label %_ZN4llvm11raw_ostreamlsEPKc.exit

35:                                               ; preds = %31
  tail call void @llvm.memcpy.p0.p0.i64(ptr noundef nonnull align 1 dereferenceable(5) %6, ptr noundef nonnull align 1 dereferenceable(5) @.str.3, i64 5, i1 false)
  %36 = load ptr, ptr %5, align 8
  %37 = getelementptr inbounds nuw i8, ptr %36, i64 5
  store ptr %37, ptr %5, align 8
  br label %_ZN4llvm11raw_ostreamlsEPKc.exit

38:                                               ; preds = %2
  %39 = icmp ult i64 %9, 16
  br i1 %39, label %40, label %42

40:                                               ; preds = %38
  %41 = tail call noundef nonnull align 8 dereferenceable(48) ptr @_ZN4llvm11raw_ostream5writeEPKcm(ptr noundef nonnull align 8 dereferenceable(48) %0, ptr noundef nonnull @.str.4, i64 noundef 16) #7
  br label %_ZN4llvm11raw_ostreamlsEPKc.exit

42:                                               ; preds = %38
  tail call void @llvm.memcpy.p0.p0.i64(ptr noundef nonnull align 1 dereferenceable(16) %6, ptr noundef nonnull align 1 dereferenceable(16) @.str.4, i64 16, i1 false)
  %43 = load ptr, ptr %5, align 8
  %44 = getelementptr inbounds nuw i8, ptr %43, i64 16
  store ptr %44, ptr %5, align 8
  br label %_ZN4llvm11raw_ostreamlsEPKc.exit

45:                                               ; preds = %2
  %46 = icmp ult i64 %9, 6
  br i1 %46, label %47, label %49

47:                                               ; preds = %45
  %48 = tail call noundef nonnull align 8 dereferenceable(48) ptr @_ZN4llvm11raw_ostream5writeEPKcm(ptr noundef nonnull align 8 dereferenceable(48) %0, ptr noundef nonnull @.str.5, i64 noundef 6) #7
  br label %_ZN4llvm11raw_ostreamlsEPKc.exit

49:                                               ; preds = %45
  tail call void @llvm.memcpy.p0.p0.i64(ptr noundef nonnull align 1 dereferenceable(6) %6, ptr noundef nonnull align 1 dereferenceable(6) @.str.5, i64 6, i1 false)
  %50 = load ptr, ptr %5, align 8
  %51 = getelementptr inbounds nuw i8, ptr %50, i64 6
  store ptr %51, ptr %5, align 8
  br label %_ZN4llvm11raw_ostreamlsEPKc.exit

52:                                               ; preds = %2
  unreachable

_ZN4llvm11raw_ostreamlsEPKc.exit:                 ; preds = %49, %47, %42, %40, %35, %33, %28, %26, %21, %19, %14, %12
  %.0 = phi ptr [ %13, %12 ], [ %0, %14 ], [ %20, %19 ], [ %0, %21 ], [ %27, %26 ], [ %0, %28 ], [ %34, %33 ], [ %0, %35 ], [ %41, %40 ], [ %0, %42 ], [ %48, %47 ], [ %0, %49 ]
  ret ptr %.0
}